target datalayout = "e-m:e-p270:32:32-p271:32:32-p272:64:64-i64:64-i128:128-f80:128-n8:16:32:64-S128"
target triple = "x86_64-pc-linux-gnu"

%struct.commit_graph_data = type { i32, i64 }
%struct.object_id = type { [32 x i8], i32 }
%struct.commit = type { %struct.object, i64, ptr, ptr, i32 }
%struct.object = type { i32, %struct.object_id }

; Function Attrs: nounwind uwtable
define internal i32 @commit_gen_cmp(ptr noundef %0, ptr noundef %1) #0 {
  %3 = alloca i32, align 4
  %4 = alloca ptr, align 8
  %5 = alloca ptr, align 8
  %6 = alloca ptr, align 8
  %7 = alloca ptr, align 8
  %8 = alloca i64, align 8
  %9 = alloca i64, align 8
  %10 = alloca i32, align 4
  store ptr %0, ptr %4, align 8, !tbaa !78
  store ptr %1, ptr %5, align 8, !tbaa !78
  call void @llvm.lifetime.start.p0(i64 8, ptr %6) #12
  %11 = load ptr, ptr %4, align 8, !tbaa !78
  %12 = load ptr, ptr %11, align 8, !tbaa !52
  store ptr %12, ptr %6, align 8, !tbaa !52
  call void @llvm.lifetime.start.p0(i64 8, ptr %7) #12
  %13 = load ptr, ptr %5, align 8, !tbaa !78
  %14 = load ptr, ptr %13, align 8, !tbaa !52
  store ptr %14, ptr %7, align 8, !tbaa !52
  call void @llvm.lifetime.start.p0(i64 8, ptr %8) #12
  %15 = load ptr, ptr %6, align 8, !tbaa !52
  %16 = call ptr @commit_graph_data_at(ptr noundef %15)
  %17 = getelementptr inbounds nuw %struct.commit_graph_data, ptr %16, i32 0, i32 1
  %18 = load i64, ptr %17, align 8, !tbaa !60
  store i64 %18, ptr %8, align 8, !tbaa !73
  call void @llvm.lifetime.start.p0(i64 8, ptr %9) #12
  %19 = load ptr, ptr %7, align 8, !tbaa !52
  %20 = call ptr @commit_graph_data_at(ptr noundef %19)
  %21 = getelementptr inbounds nuw %struct.commit_graph_data, ptr %20, i32 0, i32 1
  %22 = load i64, ptr %21, align 8, !tbaa !60
  store i64 %22, ptr %9, align 8, !tbaa !73
  %23 = load i64, ptr %8, align 8, !tbaa !73
  %24 = load i64, ptr %9, align 8, !tbaa !73
  %25 = icmp ult i64 %23, %24
  br i1 %25, label %26, label %27

26:                                               ; preds = %2
  store i32 -1, ptr %3, align 4
  store i32 1, ptr %10, align 4
  br label %53

27:                                               ; preds = %2
  %28 = load i64, ptr %8, align 8, !tbaa !73
  %29 = load i64, ptr %9, align 8, !tbaa !73
  %30 = icmp ugt i64 %28, %29
  br i1 %30, label %31, label %32

31:                                               ; preds = %27
  store i32 1, ptr %3, align 4
  store i32 1, ptr %10, align 4
  br label %53

32:                                               ; preds = %27
  br label %33

33:                                               ; preds = %32
  %34 = load ptr, ptr %6, align 8, !tbaa !52
  %35 = getelementptr inbounds nuw %struct.commit, ptr %34, i32 0, i32 1
  %36 = load i64, ptr %35, align 8, !tbaa !160
  %37 = load ptr, ptr %7, align 8, !tbaa !52
  %38 = getelementptr inbounds nuw %struct.commit, ptr %37, i32 0, i32 1
  %39 = load i64, ptr %38, align 8, !tbaa !160
  %40 = icmp ult i64 %36, %39
  br i1 %40, label %41, label %42

41:                                               ; preds = %33
  store i32 -1, ptr %3, align 4
  store i32 1, ptr %10, align 4
  br label %53

42:                                               ; preds = %33
  %43 = load ptr, ptr %6, align 8, !tbaa !52
  %44 = getelementptr inbounds nuw %struct.commit, ptr %43, i32 0, i32 1
  %45 = load i64, ptr %44, align 8, !tbaa !160
  %46 = load ptr, ptr %7, align 8, !tbaa !52
  %47 = getelementptr inbounds nuw %struct.commit, ptr %46, i32 0, i32 1
  %48 = load i64, ptr %47, align 8, !tbaa !160
  %49 = icmp ugt i64 %45, %48
  br i1 %49, label %50, label %51

50:                                               ; preds = %42
  store i32 1, ptr %3, align 4
  store i32 1, ptr %10, align 4
  br label %53

51:                                               ; preds = %42
  br label %52

52:                                               ; preds = %51
  store i32 0, ptr %3, align 4
  store i32 1, ptr %10, align 4
  br label %53

53:                                               ; preds = %52, %50, %41, %31, %26
  call void @llvm.lifetime.end.p0(i64 8, ptr %9) #12
  call void @llvm.lifetime.end.p0(i64 8, ptr %8) #12
  call void @llvm.lifetime.end.p0(i64 8, ptr %7) #12
  call void @llvm.lifetime.end.p0(i64 8, ptr %6) #12
  %54 = load i32, ptr %3, align 4
  ret i32 %54
}