; Function Attrs: nounwind uwtable
define internal range(i32 -1, 2) i32 @commit_gen_cmp(ptr noundef readonly captures(none) %0, ptr noundef readonly captures(none) %1) #0 {
  %3 = load ptr, ptr %0, align 8, !tbaa !165
  %4 = load ptr, ptr %1, align 8, !tbaa !165
  %5 = getelementptr i8, ptr %3, i64 64
  %.val16 = load i32, ptr %5, align 8, !tbaa !49
  %6 = tail call fastcc ptr @commit_graph_data_at(i32 %.val16)
  %7 = getelementptr inbounds nuw i8, ptr %6, i64 8
  %8 = load i64, ptr %7, align 8, !tbaa !63
  %9 = getelementptr i8, ptr %4, i64 64
  %.val = load i32, ptr %9, align 8, !tbaa !49
  %10 = tail call fastcc ptr @commit_graph_data_at(i32 %.val)
  %11 = getelementptr inbounds nuw i8, ptr %10, i64 8
  %12 = load i64, ptr %11, align 8, !tbaa !63
  %13 = icmp ult i64 %8, %12
  br i1 %13, label %24, label %14

14:                                               ; preds = %2
  %15 = icmp ugt i64 %8, %12
  br i1 %15, label %24, label %16

16:                                               ; preds = %14
  %17 = getelementptr inbounds nuw i8, ptr %3, i64 40
  %18 = load i64, ptr %17, align 8, !tbaa !139
  %19 = getelementptr inbounds nuw i8, ptr %4, i64 40
  %20 = load i64, ptr %19, align 8, !tbaa !139
  %21 = icmp ult i64 %18, %20
  br i1 %21, label %24, label %22

22:                                               ; preds = %16
  %23 = icmp ugt i64 %18, %20
  %. = zext i1 %23 to i32
  br label %24

24:                                               ; preds = %22, %16, %14, %2
  %.0 = phi i32 [ -1, %2 ], [ 1, %14 ], [ -1, %16 ], [ %., %22 ]
  ret i32 %.0
}